target datalayout = "e-m:e-p270:32:32-p271:32:32-p272:64:64-i64:64-i128:128-f80:128-n8:16:32:64-S128"
target triple = "x86_64-pc-linux-gnu"

%"class.llvm::StringRef" = type { ptr, i64 }
%"class.llvm::PassInfo" = type { %"class.llvm::StringRef", %"class.llvm::StringRef", ptr, i8, i8, ptr }

@.str.7 = private unnamed_addr constant [27 x i8] c"AArch64Arm64ECCallLowering\00", align 1
@.str.8 = private unnamed_addr constant [20 x i8] c"Arm64ECCallLowering\00", align 1
@_ZN12_GLOBAL__N_126AArch64Arm64ECCallLowering2IDE = internal global i8 0, align 1

; Function Attrs: mustprogress nounwind uwtable
define linkonce_odr hidden noundef i64 @_ZNSt11char_traitsIcE6lengthEPKc(ptr noundef %0) #1 comdat align 2 {
  %2 = alloca ptr, align 8
  store ptr %0, ptr %2, align 8
  %3 = load ptr, ptr %2, align 8
  %4 = call i64 @strlen(ptr noundef %3) #2
  ret i64 %4
}

; Function Attrs: mustprogress nounwind uwtable
define linkonce_odr hidden void @_ZN4llvm8PassInfoC2ENS_9StringRefES1_PKvPFPNS_4PassEvEbb(ptr noundef nonnull align 8 dereferenceable(56) %0, ptr %1, i64 %2, ptr %3, i64 %4, ptr noundef %5, ptr noundef %6, i1 noundef zeroext %7, i1 noundef zeroext %8) unnamed_addr #1 comdat align 2 {
  %10 = alloca %"class.llvm::StringRef", align 8
  %11 = alloca %"class.llvm::StringRef", align 8
  %12 = alloca ptr, align 8
  %13 = alloca ptr, align 8
  %14 = alloca ptr, align 8
  %15 = alloca i8, align 1
  %16 = alloca i8, align 1
  %17 = getelementptr inbounds nuw { ptr, i64 }, ptr %10, i32 0, i32 0
  store ptr %1, ptr %17, align 8
  %18 = getelementptr inbounds nuw { ptr, i64 }, ptr %10, i32 0, i32 1
  store i64 %2, ptr %18, align 8
  %19 = getelementptr inbounds nuw { ptr, i64 }, ptr %11, i32 0, i32 0
  store ptr %3, ptr %19, align 8
  %20 = getelementptr inbounds nuw { ptr, i64 }, ptr %11, i32 0, i32 1
  store i64 %4, ptr %20, align 8
  store ptr %0, ptr %12, align 8
  store ptr %5, ptr %13, align 8
  store ptr %6, ptr %14, align 8
  %21 = zext i1 %7 to i8
  store i8 %21, ptr %15, align 1
  %22 = zext i1 %8 to i8
  store i8 %22, ptr %16, align 1
  %23 = load ptr, ptr %12, align 8
  %24 = getelementptr inbounds nuw %"class.llvm::PassInfo", ptr %23, i32 0, i32 0
  call void @llvm.memcpy.p0.p0.i64(ptr align 8 %24, ptr align 8 %10, i64 16, i1 false)
  %25 = getelementptr inbounds nuw %"class.llvm::PassInfo", ptr %23, i32 0, i32 1
  call void @llvm.memcpy.p0.p0.i64(ptr align 8 %25, ptr align 8 %11, i64 16, i1 false)
  %26 = getelementptr inbounds nuw %"class.llvm::PassInfo", ptr %23, i32 0, i32 2
  %27 = load ptr, ptr %13, align 8
  store ptr %27, ptr %26, align 8
  %28 = getelementptr inbounds nuw %"class.llvm::PassInfo", ptr %23, i32 0, i32 3
  %29 = load i8, ptr %15, align 1
  %30 = trunc i8 %29 to i1
  %31 = zext i1 %30 to i8
  store i8 %31, ptr %28, align 8
  %32 = getelementptr inbounds nuw %"class.llvm::PassInfo", ptr %23, i32 0, i32 4
  %33 = load i8, ptr %16, align 1
  %34 = trunc i8 %33 to i1
  %35 = zext i1 %34 to i8
  store i8 %35, ptr %32, align 1
  %36 = getelementptr inbounds nuw %"class.llvm::PassInfo", ptr %23, i32 0, i32 5
  %37 = load ptr, ptr %14, align 8
  store ptr %37, ptr %36, align 8
  ret void
}

; Function Attrs: mustprogress nounwind uwtable
define linkonce_odr hidden void @_ZN4llvm9StringRefC2EPKc(ptr noundef nonnull align 8 dereferenceable(16) %0, ptr noundef %1) unnamed_addr #1 comdat align 2 {
  %3 = alloca ptr, align 8
  %4 = alloca ptr, align 8
  store ptr %0, ptr %3, align 8
  store ptr %1, ptr %4, align 8
  %5 = load ptr, ptr %3, align 8
  %6 = getelementptr inbounds nuw %"class.llvm::StringRef", ptr %5, i32 0, i32 0
  %7 = load ptr, ptr %4, align 8
  store ptr %7, ptr %6, align 8
  %8 = getelementptr inbounds nuw %"class.llvm::StringRef", ptr %5, i32 0, i32 1
  %9 = load ptr, ptr %4, align 8
  %10 = icmp ne ptr %9, null
  br i1 %10, label %11, label %14

11:                                               ; preds = %2
  %12 = load ptr, ptr %4, align 8
  %13 = call noundef i64 @_ZNSt11char_traitsIcE6lengthEPKc(ptr noundef %12)
  br label %15

14:                                               ; preds = %2
  br label %15

15:                                               ; preds = %14, %11
  %16 = phi i64 [ %13, %11 ], [ 0, %14 ]
  store i64 %16, ptr %8, align 8
  ret void
}

; Function Attrs: mustprogress nounwind uwtable
define internal noundef ptr @_ZL44initializeAArch64Arm64ECCallLoweringPassOnceRN4llvm12PassRegistryE(ptr noundef nonnull align 8 dereferenceable(160) %0) #1 {
  %2 = alloca ptr, align 8
  %3 = alloca ptr, align 8
  %4 = alloca %"class.llvm::StringRef", align 8
  %5 = alloca %"class.llvm::StringRef", align 8
  store ptr %0, ptr %2, align 8
  %6 = call noalias noundef nonnull ptr @_Znwm(i64 noundef 56) #15
  call void @_ZN4llvm9StringRefC2EPKc(ptr noundef nonnull align 8 dereferenceable(16) %4, ptr noundef @.str.7)
  call void @_ZN4llvm9StringRefC2EPKc(ptr noundef nonnull align 8 dereferenceable(16) %5, ptr noundef @.str.8)
  %7 = getelementptr inbounds nuw { ptr, i64 }, ptr %4, i32 0, i32 0
  %8 = load ptr, ptr %7, align 8
  %9 = getelementptr inbounds nuw { ptr, i64 }, ptr %4, i32 0, i32 1
  %10 = load i64, ptr %9, align 8
  %11 = getelementptr inbounds nuw { ptr, i64 }, ptr %5, i32 0, i32 0
  %12 = load ptr, ptr %11, align 8
  %13 = getelementptr inbounds nuw { ptr, i64 }, ptr %5, i32 0, i32 1
  %14 = load i64, ptr %13, align 8
  call void @_ZN4llvm8PassInfoC2ENS_9StringRefES1_PKvPFPNS_4PassEvEbb(ptr noundef nonnull align 8 dereferenceable(56) %6, ptr %8, i64 %10, ptr %12, i64 %14, ptr noundef @_ZN12_GLOBAL__N_126AArch64Arm64ECCallLowering2IDE, ptr noundef @_ZN4llvm15callDefaultCtorIN12_GLOBAL__N_126AArch64Arm64ECCallLoweringETnNSt9enable_ifIXtlSt24is_default_constructibleIT_EEEbE4typeELb1EEEPNS_4PassEv, i1 noundef zeroext false, i1 noundef zeroext false)
  store ptr %6, ptr %3, align 8
  %15 = load ptr, ptr %2, align 8
  %16 = load ptr, ptr %3, align 8
  call void @_ZN4llvm12PassRegistry12registerPassERKNS_8PassInfoEb(ptr noundef nonnull align 8 dereferenceable(160) %15, ptr noundef nonnull align 8 dereferenceable(56) %16, i1 noundef zeroext true)
  %17 = load ptr, ptr %3, align 8
  ret ptr %17
}